target datalayout = "e-m:e-p270:32:32-p271:32:32-p272:64:64-i64:64-i128:128-f80:128-n8:16:32:64-S128"
target triple = "x86_64-pc-linux-gnu"

%struct.XML_Memory_Handling_Suite = type { ptr, ptr, ptr }
%struct.XML_ParserStruct = type { ptr, ptr, ptr, %struct.XML_Memory_Handling_Suite, ptr, ptr, ptr, i64, ptr, i64, i8, i32, ptr, ptr, ptr, ptr, ptr, ptr, ptr, ptr, ptr, ptr, ptr, ptr, ptr, ptr, ptr, ptr, ptr, ptr, ptr, ptr, ptr, ptr, ptr, ptr, ptr, ptr, %struct.INIT_ENCODING, ptr, ptr, i8, i8, ptr, ptr, ptr, ptr, %struct.prolog_state, ptr, i32, ptr, ptr, ptr, ptr, ptr, i8, i32, ptr, ptr, ptr, ptr, ptr, ptr, ptr, ptr, ptr, i8, i8, ptr, ptr, ptr, ptr, ptr, ptr, i32, i32, i32, ptr, ptr, i64, i8, %struct.position, %struct.STRING_POOL, %struct.STRING_POOL, ptr, i32, i8, ptr, %struct.XML_ParsingStatus, i64 }
%struct.INIT_ENCODING = type { %struct.encoding, ptr }
%struct.encoding = type { [3 x ptr], [2 x ptr], ptr, ptr, ptr, ptr, ptr, ptr, ptr, ptr, ptr, ptr, i32, i8, i8 }
%struct.prolog_state = type { ptr, i32, i32 }
%struct.position = type { i64, i64 }
%struct.STRING_POOL = type { ptr, ptr, ptr, ptr, ptr, ptr }
%struct.XML_ParsingStatus = type { i32, i8 }
%struct.DTD = type { %struct.HASH_TABLE, %struct.HASH_TABLE, %struct.HASH_TABLE, %struct.HASH_TABLE, %struct.STRING_POOL, %struct.STRING_POOL, i8, i8, i8, %struct.prefix, i8, ptr, i32, i32, i32, i32, ptr }
%struct.HASH_TABLE = type { ptr, i8, i64, i64, ptr }
%struct.prefix = type { ptr, ptr }
%struct.ENTITY = type { ptr, ptr, i32, i32, ptr, ptr, ptr, ptr, i8, i8, i8 }

@.str.47 = private unnamed_addr constant [6 x i8] c"&amp;\00", align 1
@.str.48 = private unnamed_addr constant [2 x i8] c";\00", align 1

; Function Attrs: nounwind uwtable
define internal ptr @poolAppendString(ptr noundef %0, ptr noundef %1) #0 {
  %3 = alloca ptr, align 8
  %4 = alloca ptr, align 8
  %5 = alloca ptr, align 8
  store ptr %0, ptr %4, align 8, !tbaa !9
  store ptr %1, ptr %5, align 8, !tbaa !4
  br label %6

6:                                                ; preds = %31, %2
  %7 = load ptr, ptr %5, align 8, !tbaa !4
  %8 = load i8, ptr %7, align 1, !tbaa !10
  %9 = icmp ne i8 %8, 0
  br i1 %9, label %10, label %34

10:                                               ; preds = %6
  %11 = load ptr, ptr %4, align 8, !tbaa !9
  %12 = getelementptr inbounds nuw %struct.STRING_POOL, ptr %11, i32 0, i32 3
  %13 = load ptr, ptr %12, align 8, !tbaa !87
  %14 = load ptr, ptr %4, align 8, !tbaa !9
  %15 = getelementptr inbounds nuw %struct.STRING_POOL, ptr %14, i32 0, i32 2
  %16 = load ptr, ptr %15, align 8, !tbaa !88
  %17 = icmp eq ptr %13, %16
  br i1 %17, label %18, label %23

18:                                               ; preds = %10
  %19 = load ptr, ptr %4, align 8, !tbaa !9
  %20 = call zeroext i8 @poolGrow(ptr noundef %19)
  %21 = icmp ne i8 %20, 0
  br i1 %21, label %23, label %22

22:                                               ; preds = %18
  br i1 false, label %31, label %30

23:                                               ; preds = %18, %10
  %24 = load ptr, ptr %5, align 8, !tbaa !4
  %25 = load i8, ptr %24, align 1, !tbaa !10
  %26 = load ptr, ptr %4, align 8, !tbaa !9
  %27 = getelementptr inbounds nuw %struct.STRING_POOL, ptr %26, i32 0, i32 3
  %28 = load ptr, ptr %27, align 8, !tbaa !87
  %29 = getelementptr inbounds nuw i8, ptr %28, i32 1
  store ptr %29, ptr %27, align 8, !tbaa !87
  store i8 %25, ptr %28, align 1, !tbaa !10
  br i1 true, label %31, label %30

30:                                               ; preds = %23, %22
  store ptr null, ptr %3, align 8
  br label %38

31:                                               ; preds = %23, %22
  %32 = load ptr, ptr %5, align 8, !tbaa !4
  %33 = getelementptr inbounds nuw i8, ptr %32, i32 1
  store ptr %33, ptr %5, align 8, !tbaa !4
  br label %6, !llvm.loop !266

34:                                               ; preds = %6
  %35 = load ptr, ptr %4, align 8, !tbaa !9
  %36 = getelementptr inbounds nuw %struct.STRING_POOL, ptr %35, i32 0, i32 4
  %37 = load ptr, ptr %36, align 8, !tbaa !86
  store ptr %37, ptr %3, align 8
  br label %38

38:                                               ; preds = %34, %30
  %39 = load ptr, ptr %3, align 8
  ret ptr %39
}

; Function Attrs: nounwind uwtable
define internal i32 @storeSelfEntityValue(ptr noundef %0, ptr noundef %1) #0 {
  %3 = alloca i32, align 4
  %4 = alloca ptr, align 8
  %5 = alloca ptr, align 8
  %6 = alloca ptr, align 8
  %7 = alloca ptr, align 8
  %8 = alloca ptr, align 8
  %9 = alloca i32, align 4
  store ptr %0, ptr %4, align 8, !tbaa !13
  store ptr %1, ptr %5, align 8, !tbaa !9
  call void @llvm.lifetime.start.p0(i64 8, ptr %6) #10
  store ptr @.str.47, ptr %6, align 8, !tbaa !4
  call void @llvm.lifetime.start.p0(i64 8, ptr %7) #10
  store ptr @.str.48, ptr %7, align 8, !tbaa !4
  call void @llvm.lifetime.start.p0(i64 8, ptr %8) #10
  %10 = load ptr, ptr %4, align 8, !tbaa !13
  %11 = getelementptr inbounds nuw %struct.XML_ParserStruct, ptr %10, i32 0, i32 68
  %12 = load ptr, ptr %11, align 8, !tbaa !41
  %13 = getelementptr inbounds nuw %struct.DTD, ptr %12, i32 0, i32 5
  store ptr %13, ptr %8, align 8, !tbaa !9
  %14 = load ptr, ptr %8, align 8, !tbaa !9
  %15 = call ptr @poolAppendString(ptr noundef %14, ptr noundef @.str.47)
  %16 = icmp ne ptr %15, null
  br i1 %16, label %17, label %28

17:                                               ; preds = %2
  %18 = load ptr, ptr %8, align 8, !tbaa !9
  %19 = load ptr, ptr %5, align 8, !tbaa !9
  %20 = getelementptr inbounds nuw %struct.ENTITY, ptr %19, i32 0, i32 0
  %21 = load ptr, ptr %20, align 8, !tbaa !239
  %22 = call ptr @poolAppendString(ptr noundef %18, ptr noundef %21)
  %23 = icmp ne ptr %22, null
  br i1 %23, label %24, label %28

24:                                               ; preds = %17
  %25 = load ptr, ptr %8, align 8, !tbaa !9
  %26 = call ptr @poolAppendString(ptr noundef %25, ptr noundef @.str.48)
  %27 = icmp ne ptr %26, null
  br i1 %27, label %34, label %28

28:                                               ; preds = %24, %17, %2
  %29 = load ptr, ptr %8, align 8, !tbaa !9
  %30 = getelementptr inbounds nuw %struct.STRING_POOL, ptr %29, i32 0, i32 4
  %31 = load ptr, ptr %30, align 8, !tbaa !86
  %32 = load ptr, ptr %8, align 8, !tbaa !9
  %33 = getelementptr inbounds nuw %struct.STRING_POOL, ptr %32, i32 0, i32 3
  store ptr %31, ptr %33, align 8, !tbaa !87
  store i32 1, ptr %3, align 4
  store i32 1, ptr %9, align 4
  br label %57

34:                                               ; preds = %24
  %35 = load ptr, ptr %8, align 8, !tbaa !9
  %36 = getelementptr inbounds nuw %struct.STRING_POOL, ptr %35, i32 0, i32 4
  %37 = load ptr, ptr %36, align 8, !tbaa !86
  %38 = load ptr, ptr %5, align 8, !tbaa !9
  %39 = getelementptr inbounds nuw %struct.ENTITY, ptr %38, i32 0, i32 1
  store ptr %37, ptr %39, align 8, !tbaa !241
  %40 = load ptr, ptr %8, align 8, !tbaa !9
  %41 = getelementptr inbounds nuw %struct.STRING_POOL, ptr %40, i32 0, i32 3
  %42 = load ptr, ptr %41, align 8, !tbaa !87
  %43 = load ptr, ptr %8, align 8, !tbaa !9
  %44 = getelementptr inbounds nuw %struct.STRING_POOL, ptr %43, i32 0, i32 4
  %45 = load ptr, ptr %44, align 8, !tbaa !86
  %46 = ptrtoint ptr %42 to i64
  %47 = ptrtoint ptr %45 to i64
  %48 = sub i64 %46, %47
  %49 = trunc i64 %48 to i32
  %50 = load ptr, ptr %5, align 8, !tbaa !9
  %51 = getelementptr inbounds nuw %struct.ENTITY, ptr %50, i32 0, i32 2
  store i32 %49, ptr %51, align 8, !tbaa !242
  %52 = load ptr, ptr %8, align 8, !tbaa !9
  %53 = getelementptr inbounds nuw %struct.STRING_POOL, ptr %52, i32 0, i32 3
  %54 = load ptr, ptr %53, align 8, !tbaa !87
  %55 = load ptr, ptr %8, align 8, !tbaa !9
  %56 = getelementptr inbounds nuw %struct.STRING_POOL, ptr %55, i32 0, i32 4
  store ptr %54, ptr %56, align 8, !tbaa !86
  store i32 0, ptr %3, align 4
  store i32 1, ptr %9, align 4
  br label %57

57:                                               ; preds = %34, %28
  call void @llvm.lifetime.end.p0(i64 8, ptr %8) #10
  call void @llvm.lifetime.end.p0(i64 8, ptr %7) #10
  call void @llvm.lifetime.end.p0(i64 8, ptr %6) #10
  %58 = load i32, ptr %3, align 4
  ret i32 %58
}