; Function Attrs: nounwind uwtable
define internal fastcc range(i32 0, 2) i32 @storeSelfEntityValue(ptr captures(none) %.664.val, ptr noundef nonnull captures(none) %0) unnamed_addr #0 {
  %2 = getelementptr inbounds nuw i8, ptr %.664.val, i64 208
  %3 = getelementptr inbounds nuw i8, ptr %.664.val, i64 232
  %4 = getelementptr inbounds nuw i8, ptr %.664.val, i64 224
  br label %5

5:                                                ; preds = %12, %1
  %6 = phi i8 [ 38, %1 ], [ %16, %12 ]
  %.012.i.idx = phi i64 [ 0, %1 ], [ %.012.i.add, %12 ]
  %.012.i.ptr = getelementptr inbounds nuw i8, ptr @.str.47, i64 %.012.i.idx
  %7 = load ptr, ptr %3, align 8, !tbaa !133
  %8 = load ptr, ptr %4, align 8, !tbaa !134
  %9 = icmp eq ptr %7, %8
  br i1 %9, label %10, label %12

10:                                               ; preds = %5
  %11 = tail call fastcc zeroext i8 @poolGrow(ptr noundef nonnull %2)
  %.not10.i = icmp eq i8 %11, 0
  br i1 %.not10.i, label %poolAppendString.exit.thread, label %._crit_edge13.i

._crit_edge13.i:                                  ; preds = %10
  %.pre.i = load i8, ptr %.012.i.ptr, align 1, !tbaa !4
  %.pre14.i = load ptr, ptr %3, align 8, !tbaa !133
  br label %12

12:                                               ; preds = %._crit_edge13.i, %5
  %13 = phi ptr [ %.pre14.i, %._crit_edge13.i ], [ %7, %5 ]
  %14 = phi i8 [ %.pre.i, %._crit_edge13.i ], [ %6, %5 ]
  %15 = getelementptr inbounds nuw i8, ptr %13, i64 1
  store ptr %15, ptr %3, align 8, !tbaa !133
  store i8 %14, ptr %13, align 1, !tbaa !4
  %.012.i.add = add nuw nsw i64 %.012.i.idx, 1
  %.ptr = getelementptr inbounds nuw i8, ptr @.str.47, i64 %.012.i.add
  %16 = load i8, ptr %.ptr, align 1, !tbaa !4
  %exitcond = icmp eq i64 %.012.i.add, 5
  br i1 %exitcond, label %poolAppendString.exit, label %5, !llvm.loop !232

poolAppendString.exit:                            ; preds = %12
  %17 = getelementptr inbounds nuw i8, ptr %.664.val, i64 240
  %18 = load ptr, ptr %17, align 8, !tbaa !135
  %.not = icmp eq ptr %18, null
  br i1 %.not, label %poolAppendString.exit.thread, label %19

19:                                               ; preds = %poolAppendString.exit
  %20 = load ptr, ptr %0, align 8, !tbaa !158
  %21 = load i8, ptr %20, align 1, !tbaa !4
  %.not11.i = icmp eq i8 %21, 0
  br i1 %.not11.i, label %.preheader.preheader, label %.lr.ph.i

.lr.ph.i:                                         ; preds = %19, %28
  %22 = phi i8 [ %33, %28 ], [ %21, %19 ]
  %.012.i16 = phi ptr [ %32, %28 ], [ %20, %19 ]
  %23 = load ptr, ptr %3, align 8, !tbaa !133
  %24 = load ptr, ptr %4, align 8, !tbaa !134
  %25 = icmp eq ptr %23, %24
  br i1 %25, label %26, label %28

26:                                               ; preds = %.lr.ph.i
  %27 = tail call fastcc zeroext i8 @poolGrow(ptr noundef nonnull %2)
  %.not10.i20 = icmp eq i8 %27, 0
  br i1 %.not10.i20, label %poolAppendString.exit.thread, label %._crit_edge13.i21

._crit_edge13.i21:                                ; preds = %26
  %.pre.i22 = load i8, ptr %.012.i16, align 1, !tbaa !4
  %.pre14.i23 = load ptr, ptr %3, align 8, !tbaa !133
  br label %28

28:                                               ; preds = %._crit_edge13.i21, %.lr.ph.i
  %29 = phi ptr [ %.pre14.i23, %._crit_edge13.i21 ], [ %23, %.lr.ph.i ]
  %30 = phi i8 [ %.pre.i22, %._crit_edge13.i21 ], [ %22, %.lr.ph.i ]
  %31 = getelementptr inbounds nuw i8, ptr %29, i64 1
  store ptr %31, ptr %3, align 8, !tbaa !133
  store i8 %30, ptr %29, align 1, !tbaa !4
  %32 = getelementptr inbounds nuw i8, ptr %.012.i16, i64 1
  %33 = load i8, ptr %32, align 1, !tbaa !4
  %.not.i17 = icmp eq i8 %33, 0
  br i1 %.not.i17, label %poolAppendString.exit24, label %.lr.ph.i, !llvm.loop !232

poolAppendString.exit24:                          ; preds = %28
  %.pre = load ptr, ptr %17, align 8, !tbaa !135
  %34 = icmp eq ptr %.pre, null
  br i1 %34, label %poolAppendString.exit.thread, label %.preheader.preheader

.preheader.preheader:                             ; preds = %19, %poolAppendString.exit24
  %35 = load ptr, ptr %3, align 8, !tbaa !133
  %36 = load ptr, ptr %4, align 8, !tbaa !134
  %37 = icmp eq ptr %35, %36
  br i1 %37, label %38, label %poolAppendString.exit34

38:                                               ; preds = %.preheader.preheader
  %39 = tail call fastcc zeroext i8 @poolGrow(ptr noundef nonnull %2)
  %.not10.i30 = icmp eq i8 %39, 0
  br i1 %.not10.i30, label %poolAppendString.exit.thread, label %._crit_edge13.i31

._crit_edge13.i31:                                ; preds = %38
  %.pre14.i33 = load ptr, ptr %3, align 8, !tbaa !133
  br label %poolAppendString.exit34

poolAppendString.exit34:                          ; preds = %._crit_edge13.i31, %.preheader.preheader
  %40 = phi ptr [ %.pre14.i33, %._crit_edge13.i31 ], [ %35, %.preheader.preheader ]
  %41 = getelementptr inbounds nuw i8, ptr %40, i64 1
  store ptr %41, ptr %3, align 8, !tbaa !133
  store i8 59, ptr %40, align 1, !tbaa !4
  %42 = load ptr, ptr %17, align 8, !tbaa !135
  %.not15 = icmp eq ptr %42, null
  br i1 %.not15, label %poolAppendString.exit.thread, label %45

poolAppendString.exit.thread:                     ; preds = %10, %26, %38, %poolAppendString.exit34, %poolAppendString.exit24, %poolAppendString.exit
  %43 = getelementptr inbounds nuw i8, ptr %.664.val, i64 240
  %44 = load ptr, ptr %43, align 8, !tbaa !135
  store ptr %44, ptr %3, align 8, !tbaa !133
  br label %53

45:                                               ; preds = %poolAppendString.exit34
  %46 = getelementptr inbounds nuw i8, ptr %0, i64 8
  store ptr %42, ptr %46, align 8, !tbaa !163
  %47 = load ptr, ptr %3, align 8, !tbaa !133
  %48 = ptrtoint ptr %47 to i64
  %49 = ptrtoint ptr %42 to i64
  %50 = sub i64 %48, %49
  %51 = trunc i64 %50 to i32
  %52 = getelementptr inbounds nuw i8, ptr %0, i64 16
  store i32 %51, ptr %52, align 8, !tbaa !164
  store ptr %47, ptr %17, align 8, !tbaa !135
  br label %53

53:                                               ; preds = %45, %poolAppendString.exit.thread
  %.0 = phi i32 [ 0, %45 ], [ 1, %poolAppendString.exit.thread ]
  ret i32 %.0
}